; Function Attrs: mustprogress uwtable
define hidden noundef zeroext i1 @_ZN4cvc58internal6theory11quantifiers19QuantifiersRewriter9isVarElimENS0_12NodeTemplateILb1EEES5_(ptr noundef %v, ptr noundef %s) local_unnamed_addr #3 align 2 personality ptr @__gxx_personality_v0 {
entry:
  %agg.tmp = alloca %"class.cvc5::internal::NodeTemplate.197", align 8
  %agg.tmp1 = alloca %"class.cvc5::internal::NodeTemplate.197", align 8
  %ref.tmp = alloca %"class.cvc5::internal::TypeNode", align 8
  %ref.tmp5 = alloca %"class.cvc5::internal::TypeNode", align 8
  %0 = load ptr, ptr %s, align 8
  store ptr %0, ptr %agg.tmp, align 8
  %1 = load ptr, ptr %v, align 8
  store ptr %1, ptr %agg.tmp1, align 8
  %call = call noundef zeroext i1 @_ZN4cvc58internal4expr10hasSubtermENS0_12NodeTemplateILb0EEES3_b(ptr noundef nonnull %agg.tmp, ptr noundef nonnull %agg.tmp1, i1 noundef zeroext false)
  br i1 %call, label %cleanup.done17, label %land.rhs

land.rhs:                                         ; preds = %entry
  call void @_ZNK4cvc58internal12NodeTemplateILb1EE7getTypeEb(ptr nonnull sret(%"class.cvc5::internal::TypeNode") align 8 %ref.tmp, ptr noundef nonnull align 8 dereferenceable(8) %s, i1 noundef zeroext false)
  invoke void @_ZNK4cvc58internal12NodeTemplateILb1EE7getTypeEb(ptr nonnull sret(%"class.cvc5::internal::TypeNode") align 8 %ref.tmp5, ptr noundef nonnull align 8 dereferenceable(8) %v, i1 noundef zeroext false)
          to label %cleanup.action unwind label %lpad6

cleanup.action:                                   ; preds = %land.rhs
  %2 = load ptr, ptr %ref.tmp, align 8
  %3 = load ptr, ptr %ref.tmp5, align 8
  %cmp.i = icmp eq ptr %2, %3
  %bf.load.i.i = load i64, ptr %3, align 8
  %4 = and i64 %bf.load.i.i, 1152920405095219200
  %cmp.not.i.i = icmp eq i64 %4, 1152920405095219200
  br i1 %cmp.not.i.i, label %_ZN4cvc58internal8TypeNodeD2Ev.exit, label %if.then.i.i

if.then.i.i:                                      ; preds = %cleanup.action
  %bf.value.i.i = add i64 %bf.load.i.i, 1152920405095219200
  %bf.shl.i.i = and i64 %bf.value.i.i, 1152920405095219200
  %bf.clear7.i.i = and i64 %bf.load.i.i, -1152920405095219201
  %bf.set.i.i = or disjoint i64 %bf.shl.i.i, %bf.clear7.i.i
  store i64 %bf.set.i.i, ptr %3, align 8
  %cmp12.i.i = icmp eq i64 %bf.shl.i.i, 0
  br i1 %cmp12.i.i, label %if.then13.i.i, label %_ZN4cvc58internal8TypeNodeD2Ev.exit

if.then13.i.i:                                    ; preds = %if.then.i.i
  invoke void @_ZN4cvc58internal4expr9NodeValue15markForDeletionEv(ptr noundef nonnull align 8 dereferenceable(16) %3)
          to label %_ZN4cvc58internal8TypeNodeD2Ev.exit unwind label %terminate.lpad.i

terminate.lpad.i:                                 ; preds = %if.then13.i.i
  %5 = landingpad { ptr, i32 }
          catch ptr null
  %6 = extractvalue { ptr, i32 } %5, 0
  call void @__clang_call_terminate(ptr %6) #20
  unreachable

_ZN4cvc58internal8TypeNodeD2Ev.exit:              ; preds = %cleanup.action, %if.then.i.i, %if.then13.i.i
  %7 = load ptr, ptr %ref.tmp, align 8
  %bf.load.i.i2 = load i64, ptr %7, align 8
  %8 = and i64 %bf.load.i.i2, 1152920405095219200
  %cmp.not.i.i3 = icmp eq i64 %8, 1152920405095219200
  br i1 %cmp.not.i.i3, label %cleanup.done17, label %if.then.i.i4

if.then.i.i4:                                     ; preds = %_ZN4cvc58internal8TypeNodeD2Ev.exit
  %bf.value.i.i5 = add i64 %bf.load.i.i2, 1152920405095219200
  %bf.shl.i.i6 = and i64 %bf.value.i.i5, 1152920405095219200
  %bf.clear7.i.i7 = and i64 %bf.load.i.i2, -1152920405095219201
  %bf.set.i.i8 = or disjoint i64 %bf.shl.i.i6, %bf.clear7.i.i7
  store i64 %bf.set.i.i8, ptr %7, align 8
  %cmp12.i.i9 = icmp eq i64 %bf.shl.i.i6, 0
  br i1 %cmp12.i.i9, label %if.then13.i.i10, label %cleanup.done17

if.then13.i.i10:                                  ; preds = %if.then.i.i4
  invoke void @_ZN4cvc58internal4expr9NodeValue15markForDeletionEv(ptr noundef nonnull align 8 dereferenceable(16) %7)
          to label %cleanup.done17 unwind label %terminate.lpad.i11

terminate.lpad.i11:                               ; preds = %if.then13.i.i10
  %9 = landingpad { ptr, i32 }
          catch ptr null
  %10 = extractvalue { ptr, i32 } %9, 0
  call void @__clang_call_terminate(ptr %10) #20
  unreachable

cleanup.done17:                                   ; preds = %entry, %if.then13.i.i10, %if.then.i.i4, %_ZN4cvc58internal8TypeNodeD2Ev.exit
  %11 = phi i1 [ %cmp.i, %_ZN4cvc58internal8TypeNodeD2Ev.exit ], [ %cmp.i, %if.then.i.i4 ], [ %cmp.i, %if.then13.i.i10 ], [ false, %entry ]
  ret i1 %11

lpad6:                                            ; preds = %land.rhs
  %12 = landingpad { ptr, i32 }
          cleanup
  call void @_ZN4cvc58internal8TypeNodeD2Ev(ptr noundef nonnull align 8 dereferenceable(8) %ref.tmp) #21
  resume { ptr, i32 } %12
}